target datalayout = "e-m:e-p270:32:32-p271:32:32-p272:64:64-i64:64-i128:128-f80:128-n8:16:32:64-S128"
target triple = "x86_64-pc-linux-gnu"

%struct.async_fibre_st = type { %struct.ucontext_t, [1 x %struct.__jmp_buf_tag], i32 }
%struct.ucontext_t = type { i64, ptr, %struct.stack_t, %struct.mcontext_t, %struct.__sigset_t, %struct._libc_fpstate, [4 x i64] }
%struct.stack_t = type { ptr, i32, i64 }
%struct.mcontext_t = type { [23 x i64], ptr, [8 x i64] }
%struct.__sigset_t = type { [16 x i64] }
%struct._libc_fpstate = type { i16, i16, i16, i16, i64, i64, i32, i32, [8 x %struct._libc_fpxreg], [16 x %struct._libc_xmmreg], [24 x i32] }
%struct._libc_fpxreg = type { [4 x i16], i16, [3 x i16] }
%struct._libc_xmmreg = type { [4 x i32] }
%struct.__jmp_buf_tag = type { [8 x i64], i32, %struct.__sigset_t }
%struct.async_job_st = type { %struct.async_fibre_st, ptr, ptr, i32, i32, ptr, ptr }
%struct.async_pool_st = type { ptr, i64, i64 }

@.str = private unnamed_addr constant [32 x i8] c"../openssl/crypto/async/async.c\00", align 1
@poolkey = internal global i32 0, align 4
@__func__.ASYNC_init_thread = private unnamed_addr constant [18 x i8] c"ASYNC_init_thread\00", align 1

; Function Attrs: inlinehint nounwind uwtable
define internal ptr @sk_ASYNC_JOB_pop(ptr noundef %0) #3 {
  %2 = alloca ptr, align 8
  store ptr %0, ptr %2, align 8, !tbaa !54
  %3 = load ptr, ptr %2, align 8, !tbaa !54
  %4 = call ptr @OPENSSL_sk_pop(ptr noundef %3)
  ret ptr %4
}

; Function Attrs: inlinehint nounwind uwtable
define internal void @sk_ASYNC_JOB_free(ptr noundef %0) #3 {
  %2 = alloca ptr, align 8
  store ptr %0, ptr %2, align 8, !tbaa !54
  %3 = load ptr, ptr %2, align 8, !tbaa !54
  call void @OPENSSL_sk_free(ptr noundef %3)
  ret void
}

; Function Attrs: nounwind uwtable
define internal void @async_empty_pool(ptr noundef %0) #0 {
  %2 = alloca ptr, align 8
  %3 = alloca ptr, align 8
  %4 = alloca i32, align 4
  store ptr %0, ptr %2, align 8, !tbaa !45
  call void @llvm.lifetime.start.p0(i64 8, ptr %3) #8
  %5 = load ptr, ptr %2, align 8, !tbaa !45
  %6 = icmp eq ptr %5, null
  br i1 %6, label %12, label %7

7:                                                ; preds = %1
  %8 = load ptr, ptr %2, align 8, !tbaa !45
  %9 = getelementptr inbounds nuw %struct.async_pool_st, ptr %8, i32 0, i32 0
  %10 = load ptr, ptr %9, align 8, !tbaa !47
  %11 = icmp eq ptr %10, null
  br i1 %11, label %12, label %13

12:                                               ; preds = %7, %1
  store i32 1, ptr %4, align 4
  br label %24

13:                                               ; preds = %7
  br label %14

14:                                               ; preds = %20, %13
  %15 = load ptr, ptr %2, align 8, !tbaa !45
  %16 = getelementptr inbounds nuw %struct.async_pool_st, ptr %15, i32 0, i32 0
  %17 = load ptr, ptr %16, align 8, !tbaa !47
  %18 = call ptr @sk_ASYNC_JOB_pop(ptr noundef %17)
  store ptr %18, ptr %3, align 8, !tbaa !22
  %19 = load ptr, ptr %3, align 8, !tbaa !22
  call void @async_job_free(ptr noundef %19)
  br label %20

20:                                               ; preds = %14
  %21 = load ptr, ptr %3, align 8, !tbaa !22
  %22 = icmp ne ptr %21, null
  br i1 %22, label %14, label %23, !llvm.loop !55

23:                                               ; preds = %20
  store i32 0, ptr %4, align 4
  br label %24

24:                                               ; preds = %23, %12
  call void @llvm.lifetime.end.p0(i64 8, ptr %3) #8
  %25 = load i32, ptr %4, align 4
  switch i32 %25, label %27 [
    i32 0, label %26
    i32 1, label %26
  ]

26:                                               ; preds = %24, %24
  ret void

27:                                               ; preds = %24
  unreachable
}

; Function Attrs: inlinehint nounwind uwtable
define internal i32 @sk_ASYNC_JOB_push(ptr noundef %0, ptr noundef %1) #3 {
  %3 = alloca ptr, align 8
  %4 = alloca ptr, align 8
  store ptr %0, ptr %3, align 8, !tbaa !54
  store ptr %1, ptr %4, align 8, !tbaa !22
  %5 = load ptr, ptr %3, align 8, !tbaa !54
  %6 = load ptr, ptr %4, align 8, !tbaa !22
  %7 = call i32 @OPENSSL_sk_push(ptr noundef %5, ptr noundef %6)
  ret i32 %7
}

; Function Attrs: nounwind uwtable
define internal void @async_job_free(ptr noundef %0) #0 {
  %2 = alloca ptr, align 8
  store ptr %0, ptr %2, align 8, !tbaa !22
  %3 = load ptr, ptr %2, align 8, !tbaa !22
  %4 = icmp ne ptr %3, null
  br i1 %4, label %5, label %12

5:                                                ; preds = %1
  %6 = load ptr, ptr %2, align 8, !tbaa !22
  %7 = getelementptr inbounds nuw %struct.async_job_st, ptr %6, i32 0, i32 2
  %8 = load ptr, ptr %7, align 8, !tbaa !27
  call void @CRYPTO_free(ptr noundef %8, ptr noundef @.str, i32 noundef 94)
  %9 = load ptr, ptr %2, align 8, !tbaa !22
  %10 = getelementptr inbounds nuw %struct.async_job_st, ptr %9, i32 0, i32 0
  call void @async_fibre_free(ptr noundef %10)
  %11 = load ptr, ptr %2, align 8, !tbaa !22
  call void @CRYPTO_free(ptr noundef %11, ptr noundef @.str, i32 noundef 96)
  br label %12

12:                                               ; preds = %5, %1
  ret void
}

; Function Attrs: nounwind uwtable
define internal ptr @async_job_new() #0 {
  %1 = alloca ptr, align 8
  %2 = alloca ptr, align 8
  %3 = alloca i32, align 4
  call void @llvm.lifetime.start.p0(i64 8, ptr %2) #8
  store ptr null, ptr %2, align 8, !tbaa !22
  %4 = call noalias ptr @CRYPTO_zalloc(i64 noundef 1216, ptr noundef @.str, i32 noundef 82)
  store ptr %4, ptr %2, align 8, !tbaa !22
  %5 = load ptr, ptr %2, align 8, !tbaa !22
  %6 = icmp eq ptr %5, null
  br i1 %6, label %7, label %8

7:                                                ; preds = %0
  store ptr null, ptr %1, align 8
  store i32 1, ptr %3, align 4
  br label %12

8:                                                ; preds = %0
  %9 = load ptr, ptr %2, align 8, !tbaa !22
  %10 = getelementptr inbounds nuw %struct.async_job_st, ptr %9, i32 0, i32 4
  store i32 0, ptr %10, align 4, !tbaa !29
  %11 = load ptr, ptr %2, align 8, !tbaa !22
  store ptr %11, ptr %1, align 8
  store i32 1, ptr %3, align 4
  br label %12

12:                                               ; preds = %8, %7
  call void @llvm.lifetime.end.p0(i64 8, ptr %2) #8
  %13 = load ptr, ptr %1, align 8
  ret ptr %13
}

; Function Attrs: inlinehint nounwind uwtable
define internal ptr @sk_ASYNC_JOB_new_reserve(ptr noundef %0, i32 noundef %1) #3 {
  %3 = alloca ptr, align 8
  %4 = alloca i32, align 4
  store ptr %0, ptr %3, align 8, !tbaa !39
  store i32 %1, ptr %4, align 4, !tbaa !32
  %5 = load ptr, ptr %3, align 8, !tbaa !39
  %6 = load i32, ptr %4, align 4, !tbaa !32
  %7 = call ptr @OPENSSL_sk_new_reserve(ptr noundef %5, i32 noundef %6)
  ret ptr %7
}

; Function Attrs: nounwind uwtable
define i32 @ASYNC_init_thread(i64 noundef %0, i64 noundef %1) #0 {
  %3 = alloca i32, align 4
  %4 = alloca i64, align 8
  %5 = alloca i64, align 8
  %6 = alloca ptr, align 8
  %7 = alloca i64, align 8
  %8 = alloca i32, align 4
  %9 = alloca ptr, align 8
  store i64 %0, ptr %4, align 8, !tbaa !40
  store i64 %1, ptr %5, align 8, !tbaa !40
  call void @llvm.lifetime.start.p0(i64 8, ptr %6) #8
  call void @llvm.lifetime.start.p0(i64 8, ptr %7) #8
  store i64 0, ptr %7, align 8, !tbaa !40
  %10 = load i64, ptr %5, align 8, !tbaa !40
  %11 = load i64, ptr %4, align 8, !tbaa !40
  %12 = icmp ugt i64 %10, %11
  br i1 %12, label %13, label %14

13:                                               ; preds = %2
  call void @ERR_new()
  call void @ERR_set_debug(ptr noundef @.str, i32 noundef 354, ptr noundef @__func__.ASYNC_init_thread)
  call void (i32, i32, ptr, ...) @ERR_set_error(i32 noundef 51, i32 noundef 103, ptr noundef null)
  store i32 0, ptr %3, align 4
  store i32 1, ptr %8, align 4
  br label %86

14:                                               ; preds = %2
  %15 = call i32 @OPENSSL_init_crypto(i64 noundef 256, ptr noundef null)
  %16 = icmp ne i32 %15, 0
  br i1 %16, label %18, label %17

17:                                               ; preds = %14
  store i32 0, ptr %3, align 4
  store i32 1, ptr %8, align 4
  br label %86

18:                                               ; preds = %14
  %19 = call i32 @ossl_init_thread_start(ptr noundef null, ptr noundef null, ptr noundef @async_delete_thread_state)
  %20 = icmp ne i32 %19, 0
  br i1 %20, label %22, label %21

21:                                               ; preds = %18
  store i32 0, ptr %3, align 4
  store i32 1, ptr %8, align 4
  br label %86

22:                                               ; preds = %18
  %23 = call noalias ptr @CRYPTO_zalloc(i64 noundef 24, ptr noundef @.str, i32 noundef 364)
  store ptr %23, ptr %6, align 8, !tbaa !45
  %24 = load ptr, ptr %6, align 8, !tbaa !45
  %25 = icmp eq ptr %24, null
  br i1 %25, label %26, label %27

26:                                               ; preds = %22
  store i32 0, ptr %3, align 4
  store i32 1, ptr %8, align 4
  br label %86

27:                                               ; preds = %22
  %28 = load i64, ptr %5, align 8, !tbaa !40
  %29 = trunc i64 %28 to i32
  %30 = call ptr @sk_ASYNC_JOB_new_reserve(ptr noundef null, i32 noundef %29)
  %31 = load ptr, ptr %6, align 8, !tbaa !45
  %32 = getelementptr inbounds nuw %struct.async_pool_st, ptr %31, i32 0, i32 0
  store ptr %30, ptr %32, align 8, !tbaa !47
  %33 = load ptr, ptr %6, align 8, !tbaa !45
  %34 = getelementptr inbounds nuw %struct.async_pool_st, ptr %33, i32 0, i32 0
  %35 = load ptr, ptr %34, align 8, !tbaa !47
  %36 = icmp eq ptr %35, null
  br i1 %36, label %37, label %39

37:                                               ; preds = %27
  call void @ERR_new()
  call void @ERR_set_debug(ptr noundef @.str, i32 noundef 370, ptr noundef @__func__.ASYNC_init_thread)
  call void (i32, i32, ptr, ...) @ERR_set_error(i32 noundef 51, i32 noundef 524303, ptr noundef null)
  %38 = load ptr, ptr %6, align 8, !tbaa !45
  call void @CRYPTO_free(ptr noundef %38, ptr noundef @.str, i32 noundef 371)
  store i32 0, ptr %3, align 4
  store i32 1, ptr %8, align 4
  br label %86

39:                                               ; preds = %27
  %40 = load i64, ptr %4, align 8, !tbaa !40
  %41 = load ptr, ptr %6, align 8, !tbaa !45
  %42 = getelementptr inbounds nuw %struct.async_pool_st, ptr %41, i32 0, i32 2
  store i64 %40, ptr %42, align 8, !tbaa !50
  br label %43

43:                                               ; preds = %70, %39
  %44 = load i64, ptr %5, align 8, !tbaa !40
  %45 = add i64 %44, -1
  store i64 %45, ptr %5, align 8, !tbaa !40
  %46 = icmp ne i64 %44, 0
  br i1 %46, label %47, label %71

47:                                               ; preds = %43
  call void @llvm.lifetime.start.p0(i64 8, ptr %9) #8
  %48 = call ptr @async_job_new()
  store ptr %48, ptr %9, align 8, !tbaa !22
  %49 = load ptr, ptr %9, align 8, !tbaa !22
  %50 = icmp eq ptr %49, null
  br i1 %50, label %56, label %51

51:                                               ; preds = %47
  %52 = load ptr, ptr %9, align 8, !tbaa !22
  %53 = getelementptr inbounds nuw %struct.async_job_st, ptr %52, i32 0, i32 0
  %54 = call i32 @async_fibre_makecontext(ptr noundef %53)
  %55 = icmp ne i32 %54, 0
  br i1 %55, label %58, label %56

56:                                               ; preds = %51, %47
  %57 = load ptr, ptr %9, align 8, !tbaa !22
  call void @async_job_free(ptr noundef %57)
  store i32 3, ptr %8, align 4
  br label %68

58:                                               ; preds = %51
  %59 = load ptr, ptr %9, align 8, !tbaa !22
  %60 = getelementptr inbounds nuw %struct.async_job_st, ptr %59, i32 0, i32 2
  store ptr null, ptr %60, align 8, !tbaa !27
  %61 = load ptr, ptr %6, align 8, !tbaa !45
  %62 = getelementptr inbounds nuw %struct.async_pool_st, ptr %61, i32 0, i32 0
  %63 = load ptr, ptr %62, align 8, !tbaa !47
  %64 = load ptr, ptr %9, align 8, !tbaa !22
  %65 = call i32 @sk_ASYNC_JOB_push(ptr noundef %63, ptr noundef %64)
  %66 = load i64, ptr %7, align 8, !tbaa !40
  %67 = add i64 %66, 1
  store i64 %67, ptr %7, align 8, !tbaa !40
  store i32 0, ptr %8, align 4
  br label %68

68:                                               ; preds = %58, %56
  call void @llvm.lifetime.end.p0(i64 8, ptr %9) #8
  %69 = load i32, ptr %8, align 4
  switch i32 %69, label %88 [
    i32 0, label %70
    i32 3, label %71
  ]

70:                                               ; preds = %68
  br label %43, !llvm.loop !52

71:                                               ; preds = %68, %43
  %72 = load i64, ptr %7, align 8, !tbaa !40
  %73 = load ptr, ptr %6, align 8, !tbaa !45
  %74 = getelementptr inbounds nuw %struct.async_pool_st, ptr %73, i32 0, i32 1
  store i64 %72, ptr %74, align 8, !tbaa !51
  %75 = load ptr, ptr %6, align 8, !tbaa !45
  %76 = call i32 @CRYPTO_THREAD_set_local(ptr noundef @poolkey, ptr noundef %75)
  %77 = icmp ne i32 %76, 0
  br i1 %77, label %79, label %78

78:                                               ; preds = %71
  call void @ERR_new()
  call void @ERR_set_debug(ptr noundef @.str, i32 noundef 395, ptr noundef @__func__.ASYNC_init_thread)
  call void (i32, i32, ptr, ...) @ERR_set_error(i32 noundef 51, i32 noundef 101, ptr noundef null)
  br label %80

79:                                               ; preds = %71
  store i32 1, ptr %3, align 4
  store i32 1, ptr %8, align 4
  br label %86

80:                                               ; preds = %78
  %81 = load ptr, ptr %6, align 8, !tbaa !45
  call void @async_empty_pool(ptr noundef %81)
  %82 = load ptr, ptr %6, align 8, !tbaa !45
  %83 = getelementptr inbounds nuw %struct.async_pool_st, ptr %82, i32 0, i32 0
  %84 = load ptr, ptr %83, align 8, !tbaa !47
  call void @sk_ASYNC_JOB_free(ptr noundef %84)
  %85 = load ptr, ptr %6, align 8, !tbaa !45
  call void @CRYPTO_free(ptr noundef %85, ptr noundef @.str, i32 noundef 403)
  store i32 0, ptr %3, align 4
  store i32 1, ptr %8, align 4
  br label %86

86:                                               ; preds = %80, %79, %37, %26, %21, %17, %13
  call void @llvm.lifetime.end.p0(i64 8, ptr %7) #8
  call void @llvm.lifetime.end.p0(i64 8, ptr %6) #8
  %87 = load i32, ptr %3, align 4
  ret i32 %87

88:                                               ; preds = %68
  unreachable
}