; Function Attrs: nounwind uwtable
define range(i32 0, 2) i32 @ASYNC_init_thread(i64 noundef %0, i64 noundef %1) local_unnamed_addr #0 {
  %3 = icmp ugt i64 %1, %0
  br i1 %3, label %4, label %5

4:                                                ; preds = %2
  tail call void @ERR_new() #8
  tail call void @ERR_set_debug(ptr noundef nonnull @.str, i32 noundef 354, ptr noundef nonnull @__func__.ASYNC_init_thread) #8
  tail call void (i32, i32, ptr, ...) @ERR_set_error(i32 noundef 51, i32 noundef 103, ptr noundef null) #8
  br label %41

5:                                                ; preds = %2
  %6 = tail call i32 @OPENSSL_init_crypto(i64 noundef 256, ptr noundef null) #8
  %.not = icmp eq i32 %6, 0
  br i1 %.not, label %41, label %7

7:                                                ; preds = %5
  %8 = tail call i32 @ossl_init_thread_start(ptr noundef null, ptr noundef null, ptr noundef nonnull @async_delete_thread_state) #8
  %.not32 = icmp eq i32 %8, 0
  br i1 %.not32, label %41, label %9

9:                                                ; preds = %7
  %10 = tail call noalias ptr @CRYPTO_zalloc(i64 noundef 24, ptr noundef nonnull @.str, i32 noundef 364) #8
  %11 = icmp eq ptr %10, null
  br i1 %11, label %41, label %12

12:                                               ; preds = %9
  %13 = trunc i64 %1 to i32
  %14 = tail call ptr @OPENSSL_sk_new_reserve(ptr noundef null, i32 noundef %13) #8
  store ptr %14, ptr %10, align 8, !tbaa !32
  %15 = icmp eq ptr %14, null
  br i1 %15, label %16, label %17

16:                                               ; preds = %12
  tail call void @ERR_new() #8
  tail call void @ERR_set_debug(ptr noundef nonnull @.str, i32 noundef 370, ptr noundef nonnull @__func__.ASYNC_init_thread) #8
  tail call void (i32, i32, ptr, ...) @ERR_set_error(i32 noundef 51, i32 noundef 524303, ptr noundef null) #8
  tail call void @CRYPTO_free(ptr noundef nonnull %10, ptr noundef nonnull @.str, i32 noundef 371) #8
  br label %41

17:                                               ; preds = %12
  %18 = getelementptr inbounds nuw i8, ptr %10, i64 16
  store i64 %0, ptr %18, align 8, !tbaa !36
  %.not3341 = icmp eq i64 %1, 0
  br i1 %.not3341, label %.split.thread, label %.lr.ph

.lr.ph:                                           ; preds = %17, %.split
  %.in = phi i64 [ %19, %.split ], [ %1, %17 ]
  %.02542 = phi i64 [ %29, %.split ], [ 0, %17 ]
  %19 = add i64 %.in, -1
  %20 = tail call noalias ptr @CRYPTO_zalloc(i64 noundef 1216, ptr noundef nonnull @.str, i32 noundef 82) #8
  %21 = icmp eq ptr %20, null
  br i1 %21, label %.split.thread, label %22

22:                                               ; preds = %.lr.ph
  %23 = getelementptr inbounds nuw i8, ptr %20, i64 1196
  store i32 0, ptr %23, align 4, !tbaa !26
  %24 = tail call i32 @async_fibre_makecontext(ptr noundef nonnull %20) #8
  %.not34 = icmp eq i32 %24, 0
  %25 = getelementptr inbounds nuw i8, ptr %20, i64 1184
  br i1 %.not34, label %async_job_free.exit, label %.split

async_job_free.exit:                              ; preds = %22
  %26 = load ptr, ptr %25, align 8, !tbaa !24
  tail call void @CRYPTO_free(ptr noundef %26, ptr noundef nonnull @.str, i32 noundef 94) #8
  tail call void @async_fibre_free(ptr noundef nonnull %20) #8
  tail call void @CRYPTO_free(ptr noundef nonnull %20, ptr noundef nonnull @.str, i32 noundef 96) #8
  br label %.split.thread

.split:                                           ; preds = %22
  store ptr null, ptr %25, align 8, !tbaa !24
  %27 = load ptr, ptr %10, align 8, !tbaa !32
  %28 = tail call i32 @OPENSSL_sk_push(ptr noundef %27, ptr noundef nonnull %20) #8
  %29 = add nuw i64 %.02542, 1
  %.not33 = icmp eq i64 %19, 0
  br i1 %.not33, label %.split.thread, label %.lr.ph

.split.thread:                                    ; preds = %.split, %.lr.ph, %17, %async_job_free.exit
  %.02540 = phi i64 [ %.02542, %async_job_free.exit ], [ 0, %17 ], [ %1, %.split ], [ %.02542, %.lr.ph ]
  %30 = getelementptr inbounds nuw i8, ptr %10, i64 8
  store i64 %.02540, ptr %30, align 8, !tbaa !37
  %31 = tail call i32 @CRYPTO_THREAD_set_local(ptr noundef nonnull @poolkey, ptr noundef nonnull %10) #8
  %.not35 = icmp eq i32 %31, 0
  br i1 %.not35, label %32, label %41

32:                                               ; preds = %.split.thread
  tail call void @ERR_new() #8
  tail call void @ERR_set_debug(ptr noundef nonnull @.str, i32 noundef 395, ptr noundef nonnull @__func__.ASYNC_init_thread) #8
  tail call void (i32, i32, ptr, ...) @ERR_set_error(i32 noundef 51, i32 noundef 101, ptr noundef null) #8
  %33 = load ptr, ptr %10, align 8, !tbaa !32
  %34 = icmp eq ptr %33, null
  br i1 %34, label %async_empty_pool.exit, label %.split5.i

.split5.i:                                        ; preds = %32
  %35 = tail call ptr @OPENSSL_sk_pop(ptr noundef nonnull %33) #8
  %cond.i = icmp eq ptr %35, null
  br i1 %cond.i, label %async_empty_pool.exit, label %.split.i

.split.i:                                         ; preds = %.split5.i, %.split.i
  %.sink14.i = phi ptr [ %39, %.split.i ], [ %35, %.split5.i ]
  %36 = getelementptr inbounds nuw i8, ptr %.sink14.i, i64 1184
  %37 = load ptr, ptr %36, align 8, !tbaa !24
  tail call void @CRYPTO_free(ptr noundef %37, ptr noundef nonnull @.str, i32 noundef 94) #8
  tail call void @async_fibre_free(ptr noundef nonnull %.sink14.i) #8
  tail call void @CRYPTO_free(ptr noundef nonnull %.sink14.i, ptr noundef nonnull @.str, i32 noundef 96) #8
  %38 = load ptr, ptr %10, align 8, !tbaa !32
  %39 = tail call ptr @OPENSSL_sk_pop(ptr noundef %38) #8
  %cond10.i = icmp eq ptr %39, null
  br i1 %cond10.i, label %async_empty_pool.exit, label %.split.i

async_empty_pool.exit:                            ; preds = %.split.i, %32, %.split5.i
  %40 = load ptr, ptr %10, align 8, !tbaa !32
  tail call void @OPENSSL_sk_free(ptr noundef %40) #8
  tail call void @CRYPTO_free(ptr noundef nonnull %10, ptr noundef nonnull @.str, i32 noundef 403) #8
  br label %41

41:                                               ; preds = %.split.thread, %9, %7, %5, %async_empty_pool.exit, %16, %4
  %.0 = phi i32 [ 0, %4 ], [ 0, %16 ], [ 0, %async_empty_pool.exit ], [ 0, %5 ], [ 0, %7 ], [ 0, %9 ], [ 1, %.split.thread ]
  ret i32 %.0
}